; Function Attrs: null_pointer_is_valid sspstrong uwtable
define noundef ptr @fvalue_dup(ptr noundef %0) local_unnamed_addr #0 {
  %2 = tail call noalias dereferenceable_or_null(40) ptr @g_slice_alloc(i64 noundef 40) #10
  %3 = load ptr, ptr %0, align 8
  store ptr %3, ptr %2, align 8
  %4 = getelementptr inbounds nuw i8, ptr %3, i64 16
  %5 = load ptr, ptr %4, align 8
  %.not = icmp eq ptr %5, null
  br i1 %.not, label %7, label %6

6:                                                ; preds = %1
  tail call void %5(ptr noundef %2, ptr noundef %0)
  br label %10

7:                                                ; preds = %1
  %8 = getelementptr inbounds nuw i8, ptr %2, i64 8
  %9 = getelementptr inbounds nuw i8, ptr %0, i64 8
  tail call void @llvm.memcpy.p0.p0.i64(ptr noundef nonnull align 1 dereferenceable(32) %8, ptr noundef nonnull align 1 dereferenceable(32) %9, i64 noundef 32, i1 noundef false) #11
  br label %10

10:                                               ; preds = %7, %6
  ret ptr %2
}